; Function Attrs: mustprogress nounwind uwtable
define dso_local void @_ZN4llvm8demangleB5cxx11ESt17basic_string_viewIcSt11char_traitsIcEE(ptr dead_on_unwind noalias nonnull writable sret(%"class.std::__cxx11::basic_string") align 8 %0, i64 %1, ptr %2) local_unnamed_addr #0 {
  tail call void @_ZNSt7__cxx1112basic_stringIcSt11char_traitsIcESaIcEEC1Ev(ptr noundef nonnull align 8 dereferenceable(32) %0) #5
  %4 = tail call noundef zeroext i1 @_ZN4llvm20nonMicrosoftDemangleESt17basic_string_viewIcSt11char_traitsIcEERNSt7__cxx1112basic_stringIcS2_SaIcEEEbb(i64 %1, ptr %2, ptr noundef nonnull align 8 dereferenceable(32) %0, i1 noundef zeroext true, i1 noundef zeroext true)
  br i1 %4, label %17, label %5

5:                                                ; preds = %3
  %6 = icmp eq i64 %1, 0
  br i1 %6, label %_ZN4llvm16itanium_demangle11starts_withESt17basic_string_viewIcSt11char_traitsIcEEc.exit.thread, label %_ZN4llvm16itanium_demangle11starts_withESt17basic_string_viewIcSt11char_traitsIcEEc.exit

_ZN4llvm16itanium_demangle11starts_withESt17basic_string_viewIcSt11char_traitsIcEEc.exit: ; preds = %5
  %7 = load i8, ptr %2, align 1
  %8 = icmp eq i8 %7, 95
  br i1 %8, label %_ZNKSt17basic_string_viewIcSt11char_traitsIcEE6substrEmm.exit, label %_ZN4llvm16itanium_demangle11starts_withESt17basic_string_viewIcSt11char_traitsIcEEc.exit.thread

_ZNKSt17basic_string_viewIcSt11char_traitsIcEE6substrEmm.exit: ; preds = %_ZN4llvm16itanium_demangle11starts_withESt17basic_string_viewIcSt11char_traitsIcEEc.exit
  %9 = add i64 %1, -1
  %10 = getelementptr inbounds nuw i8, ptr %2, i64 1
  %11 = tail call noundef zeroext i1 @_ZN4llvm20nonMicrosoftDemangleESt17basic_string_viewIcSt11char_traitsIcEERNSt7__cxx1112basic_stringIcS2_SaIcEEEbb(i64 %9, ptr nonnull %10, ptr noundef nonnull align 8 dereferenceable(32) %0, i1 noundef zeroext false, i1 noundef zeroext true)
  br i1 %11, label %17, label %_ZN4llvm16itanium_demangle11starts_withESt17basic_string_viewIcSt11char_traitsIcEEc.exit.thread

_ZN4llvm16itanium_demangle11starts_withESt17basic_string_viewIcSt11char_traitsIcEEc.exit.thread: ; preds = %5, %_ZNKSt17basic_string_viewIcSt11char_traitsIcEE6substrEmm.exit, %_ZN4llvm16itanium_demangle11starts_withESt17basic_string_viewIcSt11char_traitsIcEEc.exit
  %12 = tail call noundef ptr @_ZN4llvm17microsoftDemangleESt17basic_string_viewIcSt11char_traitsIcEEPmPiNS_15MSDemangleFlagsE(i64 %1, ptr %2, ptr noundef null, ptr noundef null, i32 noundef 0) #5
  %.not = icmp eq ptr %12, null
  br i1 %.not, label %15, label %13

13:                                               ; preds = %_ZN4llvm16itanium_demangle11starts_withESt17basic_string_viewIcSt11char_traitsIcEEc.exit.thread
  %14 = tail call noundef nonnull align 8 dereferenceable(32) ptr @_ZNSt7__cxx1112basic_stringIcSt11char_traitsIcESaIcEEaSEPKc(ptr noundef nonnull align 8 dereferenceable(32) %0, ptr noundef nonnull %12) #5
  tail call void @free(ptr noundef nonnull %12) #5
  br label %17

15:                                               ; preds = %_ZN4llvm16itanium_demangle11starts_withESt17basic_string_viewIcSt11char_traitsIcEEc.exit.thread
  %16 = tail call noundef nonnull align 8 dereferenceable(32) ptr @_ZNSt7__cxx1112basic_stringIcSt11char_traitsIcESaIcEE6assignEPKcm(ptr noundef nonnull align 8 dereferenceable(32) %0, ptr noundef %2, i64 noundef %1) #5
  br label %17

17:                                               ; preds = %3, %_ZNKSt17basic_string_viewIcSt11char_traitsIcEE6substrEmm.exit, %15, %13
  ret void
}